(lp0
(S'cppflags'
p1
ccopy_reg
_reconstructor
p2
(cino.utils
SpaceList
p3
c__builtin__
list
p4
(lp5
S'-mmcu=atmega328p'
p6
aS'-DF_CPU=16000000L'
p7
aS'-DARDUINO=105'
p8
aS'-I/usr/share/arduino/hardware/arduino/cores/arduino'
p9
aS'-ffunction-sections'
p10
aS'-fdata-sections'
p11
aS'-g'
p12
aS'-Os'
p13
aS'-w'
p14
aS'-I/usr/share/arduino/hardware/arduino/variants/standard'
p15
aS'-I/usr/share/arduino/libraries/Robot_Control'
p16
aS'-I/usr/share/arduino/libraries/Robot_Control/utility'
p17
aS'-I/usr/share/arduino/hardware/arduino/cores/arduino'
p18
aS'-I/usr/share/arduino/hardware/arduino/cores/arduino/avr-libc'
p19
atp20
Rp21
tp22
a(S'cxx'
p23
S'/usr/share/arduino/hardware/tools/avr/bin/avr-g++'
p24
tp25
a(S'arduino_libraries_dir'
p26
S'/usr/share/arduino/libraries'
p27
tp28
a(S'avrdude'
p29
S'/usr/share/arduino/hardware/tools/avrdude'
p30
tp31
a(S'ar'
p32
S'/usr/share/arduino/hardware/tools/avr/bin/avr-ar'
p33
tp34
a(S'names'
p35
(dp36
S'cpp'
p37
S'%s.cpp'
p38
sS'obj'
p39
S'%s.o'
p40
sS'deps'
p41
S'%s.d'
p42
sS'lib'
p43
S'lib%s.a'
p44
stp45
a(S'ldflags'
p46
g2
(g3
g4
(lp47
g6
aS'-Wl,-Os'
p48
aS'-Wl,--gc-sections'
p49
atp50
Rp51
tp52
a(S'arduino_lib_version'
p53
g2
(cino.environment
Version
p54
c__builtin__
tuple
p55
(I1
I0
I5
tp56
tp57
Rp58
tp59
a(S'objcopy'
p60
S'/usr/share/arduino/hardware/tools/avr/bin/avr-objcopy'
p61
tp62
a(S'board_models'
p63
cino.environment
BoardModels
p64
((lp65
(lp66
S'uno'
p67
a(dp68
S'bootloader'
p69
(dp70
S'extended_fuses'
p71
S'0x05'
p72
sS'high_fuses'
p73
S'0xde'
p74
sS'low_fuses'
p75
S'0xff'
p76
sS'lock_bits'
p77
S'0x0F'
p78
sS'file'
p79
S'optiboot_atmega328.hex'
p80
sS'path'
p81
S'optiboot'
p82
sS'unlock_bits'
p83
S'0x3F'
p84
ssS'build'
p85
(dp86
S'core'
p87
S'arduino'
p88
sS'mcu'
p89
S'atmega328p'
p90
sS'f_cpu'
p91
S'16000000L'
p92
sS'variant'
p93
S'standard'
p94
ssS'name'
p95
S'Arduino Uno'
p96
sS'upload'
p97
(dp98
S'speed'
p99
S'115200'
p100
sS'maximum_size'
p101
S'32256'
p102
sS'protocol'
p103
S'arduino'
p104
ssaa(lp105
S'atmega328'
p106
a(dp107
S'bootloader'
p108
(dp109
S'extended_fuses'
p110
S'0x05'
p111
sS'high_fuses'
p112
S'0xDA'
p113
sS'low_fuses'
p114
S'0xFF'
p115
sS'lock_bits'
p116
S'0x0F'
p117
sS'file'
p118
S'ATmegaBOOT_168_atmega328.hex'
p119
sS'path'
p120
S'atmega'
p121
sS'unlock_bits'
p122
S'0x3F'
p123
ssS'build'
p124
(dp125
S'core'
p126
S'arduino'
p127
sS'mcu'
p128
S'atmega328p'
p129
sS'f_cpu'
p130
S'16000000L'
p131
sS'variant'
p132
S'standard'
p133
ssS'name'
p134
S'Arduino Duemilanove w/ ATmega328'
p135
sS'upload'
p136
(dp137
S'speed'
p138
S'57600'
p139
sS'maximum_size'
p140
S'30720'
p141
sS'protocol'
p142
S'arduino'
p143
ssaa(lp144
S'diecimila'
p145
a(dp146
S'bootloader'
p147
(dp148
S'extended_fuses'
p149
S'0x00'
p150
sS'high_fuses'
p151
S'0xdd'
p152
sS'low_fuses'
p153
S'0xff'
p154
sS'lock_bits'
p155
S'0x0F'
p156
sS'file'
p157
S'ATmegaBOOT_168_diecimila.hex'
p158
sS'path'
p159
S'atmega'
p160
sS'unlock_bits'
p161
S'0x3F'
p162
ssS'build'
p163
(dp164
S'core'
p165
S'arduino'
p166
sS'mcu'
p167
S'atmega168'
p168
sS'f_cpu'
p169
S'16000000L'
p170
sS'variant'
p171
S'standard'
p172
ssS'name'
p173
S'Arduino Diecimila or Duemilanove w/ ATmega168'
p174
sS'upload'
p175
(dp176
S'speed'
p177
S'19200'
p178
sS'maximum_size'
p179
S'14336'
p180
sS'protocol'
p181
S'arduino'
p182
ssaa(lp183
S'nano328'
p184
a(dp185
S'bootloader'
p186
(dp187
S'extended_fuses'
p188
S'0x05'
p189
sS'high_fuses'
p190
S'0xDA'
p191
sS'low_fuses'
p192
S'0xFF'
p193
sS'lock_bits'
p194
S'0x0F'
p195
sS'file'
p196
S'ATmegaBOOT_168_atmega328.hex'
p197
sS'path'
p198
S'atmega'
p199
sS'unlock_bits'
p200
S'0x3F'
p201
ssS'build'
p202
(dp203
S'core'
p204
S'arduino'
p205
sS'mcu'
p206
S'atmega328p'
p207
sS'f_cpu'
p208
S'16000000L'
p209
sS'variant'
p210
S'eightanaloginputs'
p211
ssS'name'
p212
S'Arduino Nano w/ ATmega328'
p213
sS'upload'
p214
(dp215
S'speed'
p216
S'57600'
p217
sS'maximum_size'
p218
S'30720'
p219
sS'protocol'
p220
S'arduino'
p221
ssaa(lp222
S'nano'
p223
a(dp224
S'bootloader'
p225
(dp226
S'extended_fuses'
p227
S'0x00'
p228
sS'high_fuses'
p229
S'0xdd'
p230
sS'low_fuses'
p231
S'0xff'
p232
sS'lock_bits'
p233
S'0x0F'
p234
sS'file'
p235
S'ATmegaBOOT_168_diecimila.hex'
p236
sS'path'
p237
S'atmega'
p238
sS'unlock_bits'
p239
S'0x3F'
p240
ssS'build'
p241
(dp242
S'core'
p243
S'arduino'
p244
sS'mcu'
p245
S'atmega168'
p246
sS'f_cpu'
p247
S'16000000L'
p248
sS'variant'
p249
S'eightanaloginputs'
p250
ssS'name'
p251
S'Arduino Nano w/ ATmega168'
p252
sS'upload'
p253
(dp254
S'speed'
p255
S'19200'
p256
sS'maximum_size'
p257
S'14336'
p258
sS'protocol'
p259
S'arduino'
p260
ssaa(lp261
S'mega2560'
p262
a(dp263
S'bootloader'
p264
(dp265
S'extended_fuses'
p266
S'0xFD'
p267
sS'high_fuses'
p268
S'0xD8'
p269
sS'low_fuses'
p270
S'0xFF'
p271
sS'lock_bits'
p272
S'0x0F'
p273
sS'file'
p274
S'stk500boot_v2_mega2560.hex'
p275
sS'path'
p276
S'stk500v2'
p277
sS'unlock_bits'
p278
S'0x3F'
p279
ssS'build'
p280
(dp281
S'core'
p282
S'arduino'
p283
sS'mcu'
p284
S'atmega2560'
p285
sS'f_cpu'
p286
S'16000000L'
p287
sS'variant'
p288
S'mega'
p289
ssS'name'
p290
S'Arduino Mega 2560 or Mega ADK'
p291
sS'upload'
p292
(dp293
S'speed'
p294
S'115200'
p295
sS'maximum_size'
p296
S'258048'
p297
sS'protocol'
p298
S'wiring'
p299
ssaa(lp300
S'mega'
p301
a(dp302
S'bootloader'
p303
(dp304
S'extended_fuses'
p305
S'0xF5'
p306
sS'high_fuses'
p307
S'0xDA'
p308
sS'low_fuses'
p309
S'0xFF'
p310
sS'lock_bits'
p311
S'0x0F'
p312
sS'file'
p313
S'ATmegaBOOT_168_atmega1280.hex'
p314
sS'path'
p315
S'atmega'
p316
sS'unlock_bits'
p317
S'0x3F'
p318
ssS'build'
p319
(dp320
S'core'
p321
S'arduino'
p322
sS'mcu'
p323
S'atmega1280'
p324
sS'f_cpu'
p325
S'16000000L'
p326
sS'variant'
p327
S'mega'
p328
ssS'name'
p329
S'Arduino Mega (ATmega1280)'
p330
sS'upload'
p331
(dp332
S'speed'
p333
S'57600'
p334
sS'maximum_size'
p335
S'126976'
p336
sS'protocol'
p337
S'arduino'
p338
ssaa(lp339
S'leonardo'
p340
a(dp341
S'bootloader'
p342
(dp343
S'extended_fuses'
p344
S'0xcb'
p345
sS'high_fuses'
p346
S'0xd8'
p347
sS'low_fuses'
p348
S'0xff'
p349
sS'lock_bits'
p350
S'0x2F'
p351
sS'file'
p352
S'Caterina-Leonardo.hex'
p353
sS'path'
p354
S'caterina'
p355
sS'unlock_bits'
p356
S'0x3F'
p357
ssS'build'
p358
(dp359
S'core'
p360
S'arduino'
p361
sS'f_cpu'
p362
S'16000000L'
p363
sS'vid'
p364
S'0x2341'
p365
sS'pid'
p366
S'0x8036'
p367
sS'variant'
p368
S'leonardo'
p369
sS'mcu'
p370
S'atmega32u4'
p371
ssS'name'
p372
S'Arduino Leonardo'
p373
sS'upload'
p374
(dp375
S'speed'
p376
S'57600'
p377
sS'maximum_size'
p378
S'28672'
p379
sS'protocol'
p380
S'avr109'
p381
sS'disable_flushing'
p382
S'true'
p383
ssaa(lp384
S'esplora'
p385
a(dp386
S'bootloader'
p387
(dp388
S'extended_fuses'
p389
S'0xcb'
p390
sS'high_fuses'
p391
S'0xd8'
p392
sS'low_fuses'
p393
S'0xff'
p394
sS'lock_bits'
p395
S'0x2F'
p396
sS'file'
p397
S'Caterina-Esplora.hex'
p398
sS'path'
p399
S'caterina'
p400
sS'unlock_bits'
p401
S'0x3F'
p402
ssS'build'
p403
(dp404
S'core'
p405
S'arduino'
p406
sS'f_cpu'
p407
S'16000000L'
p408
sS'vid'
p409
S'0x2341'
p410
sS'pid'
p411
S'0x803C'
p412
sS'variant'
p413
S'leonardo'
p414
sS'mcu'
p415
S'atmega32u4'
p416
ssS'name'
p417
S'Arduino Esplora'
p418
sS'upload'
p419
(dp420
S'speed'
p421
S'57600'
p422
sS'maximum_size'
p423
S'28672'
p424
sS'protocol'
p425
S'avr109'
p426
sS'disable_flushing'
p427
S'true'
p428
ssaa(lp429
S'micro'
p430
a(dp431
S'bootloader'
p432
(dp433
S'extended_fuses'
p434
S'0xcb'
p435
sS'high_fuses'
p436
S'0xd8'
p437
sS'low_fuses'
p438
S'0xff'
p439
sS'lock_bits'
p440
S'0x2F'
p441
sS'file'
p442
S'Caterina-Micro.hex'
p443
sS'path'
p444
S'caterina'
p445
sS'unlock_bits'
p446
S'0x3F'
p447
ssS'build'
p448
(dp449
S'core'
p450
S'arduino'
p451
sS'f_cpu'
p452
S'16000000L'
p453
sS'vid'
p454
S'0x2341'
p455
sS'pid'
p456
S'0x8037'
p457
sS'variant'
p458
S'micro'
p459
sS'mcu'
p460
S'atmega32u4'
p461
ssS'name'
p462
S'Arduino Micro'
p463
sS'upload'
p464
(dp465
S'speed'
p466
S'57600'
p467
sS'maximum_size'
p468
S'28672'
p469
sS'protocol'
p470
S'avr109'
p471
sS'disable_flushing'
p472
S'true'
p473
ssaa(lp474
S'mini328'
p475
a(dp476
S'bootloader'
p477
(dp478
S'extended_fuses'
p479
S'0x05'
p480
sS'high_fuses'
p481
S'0xd8'
p482
sS'low_fuses'
p483
S'0xff'
p484
sS'lock_bits'
p485
S'0x0F'
p486
sS'file'
p487
S'optiboot_atmega328-Mini.hex'
p488
sS'path'
p489
S'optiboot'
p490
sS'unlock_bits'
p491
S'0x3F'
p492
ssS'build'
p493
(dp494
S'core'
p495
S'arduino'
p496
sS'mcu'
p497
S'atmega328p'
p498
sS'f_cpu'
p499
S'16000000L'
p500
sS'variant'
p501
S'eightanaloginputs'
p502
ssS'name'
p503
S'Arduino Mini w/ ATmega328'
p504
sS'upload'
p505
(dp506
S'speed'
p507
S'115200'
p508
sS'maximum_size'
p509
S'28672'
p510
sS'protocol'
p511
S'arduino'
p512
ssaa(lp513
S'mini'
p514
a(dp515
S'bootloader'
p516
(dp517
S'extended_fuses'
p518
S'0x00'
p519
sS'high_fuses'
p520
S'0xdd'
p521
sS'low_fuses'
p522
S'0xff'
p523
sS'lock_bits'
p524
S'0x0F'
p525
sS'file'
p526
S'ATmegaBOOT_168_ng.hex'
p527
sS'path'
p528
S'atmega'
p529
sS'unlock_bits'
p530
S'0x3F'
p531
ssS'build'
p532
(dp533
S'core'
p534
S'arduino'
p535
sS'mcu'
p536
S'atmega168'
p537
sS'f_cpu'
p538
S'16000000L'
p539
sS'variant'
p540
S'eightanaloginputs'
p541
ssS'name'
p542
S'Arduino Mini w/ ATmega168'
p543
sS'upload'
p544
(dp545
S'speed'
p546
S'19200'
p547
sS'maximum_size'
p548
S'14336'
p549
sS'protocol'
p550
S'arduino'
p551
ssaa(lp552
S'ethernet'
p553
a(dp554
S'bootloader'
p555
(dp556
S'extended_fuses'
p557
S'0x05'
p558
sS'high_fuses'
p559
S'0xde'
p560
sS'low_fuses'
p561
S'0xff'
p562
sS'lock_bits'
p563
S'0x0F'
p564
sS'file'
p565
S'optiboot_atmega328.hex'
p566
sS'path'
p567
S'optiboot'
p568
sS'unlock_bits'
p569
S'0x3F'
p570
ssS'build'
p571
(dp572
S'f_cpu'
p573
S'16000000L'
p574
sS'mcu'
p575
S'atmega328p'
p576
sS'variant'
p577
S'standard'
p578
sS'core'
p579
S'arduino'
p580
ssS'name'
p581
S'Arduino Ethernet'
p582
sS'upload'
p583
(dp584
S'speed'
p585
S'115200'
p586
sS'maximum_size'
p587
S'32256'
p588
sS'protocol'
p589
S'arduino'
p590
ssaa(lp591
S'fio'
p592
a(dp593
S'bootloader'
p594
(dp595
S'extended_fuses'
p596
S'0x05'
p597
sS'high_fuses'
p598
S'0xDA'
p599
sS'low_fuses'
p600
S'0xFF'
p601
sS'lock_bits'
p602
S'0x0F'
p603
sS'file'
p604
S'ATmegaBOOT_168_atmega328_pro_8MHz.hex'
p605
sS'path'
p606
S'arduino:atmega'
p607
sS'unlock_bits'
p608
S'0x3F'
p609
ssS'build'
p610
(dp611
S'core'
p612
S'arduino'
p613
sS'mcu'
p614
S'atmega328p'
p615
sS'f_cpu'
p616
S'8000000L'
p617
sS'variant'
p618
S'eightanaloginputs'
p619
ssS'name'
p620
S'Arduino Fio'
p621
sS'upload'
p622
(dp623
S'speed'
p624
S'57600'
p625
sS'maximum_size'
p626
S'30720'
p627
sS'protocol'
p628
S'arduino'
p629
ssaa(lp630
S'bt328'
p631
a(dp632
S'bootloader'
p633
(dp634
S'extended_fuses'
p635
S'0x05'
p636
sS'high_fuses'
p637
S'0xd8'
p638
sS'low_fuses'
p639
S'0xff'
p640
sS'lock_bits'
p641
S'0x0F'
p642
sS'file'
p643
S'ATmegaBOOT_168_atmega328_bt.hex'
p644
sS'path'
p645
S'bt'
p646
sS'unlock_bits'
p647
S'0x3F'
p648
ssS'build'
p649
(dp650
S'core'
p651
S'arduino'
p652
sS'mcu'
p653
S'atmega328p'
p654
sS'f_cpu'
p655
S'16000000L'
p656
sS'variant'
p657
S'eightanaloginputs'
p658
ssS'name'
p659
S'Arduino BT w/ ATmega328'
p660
sS'upload'
p661
(dp662
S'speed'
p663
S'19200'
p664
sS'maximum_size'
p665
S'28672'
p666
sS'protocol'
p667
S'arduino'
p668
sS'disable_flushing'
p669
S'true'
p670
ssaa(lp671
S'bt'
p672
a(dp673
S'bootloader'
p674
(dp675
S'extended_fuses'
p676
S'0x00'
p677
sS'high_fuses'
p678
S'0xdd'
p679
sS'low_fuses'
p680
S'0xff'
p681
sS'lock_bits'
p682
S'0x0F'
p683
sS'file'
p684
S'ATmegaBOOT_168.hex'
p685
sS'path'
p686
S'bt'
p687
sS'unlock_bits'
p688
S'0x3F'
p689
ssS'build'
p690
(dp691
S'core'
p692
S'arduino'
p693
sS'mcu'
p694
S'atmega168'
p695
sS'f_cpu'
p696
S'16000000L'
p697
sS'variant'
p698
S'eightanaloginputs'
p699
ssS'name'
p700
S'Arduino BT w/ ATmega168'
p701
sS'upload'
p702
(dp703
S'speed'
p704
S'19200'
p705
sS'maximum_size'
p706
S'14336'
p707
sS'protocol'
p708
S'arduino'
p709
sS'disable_flushing'
p710
S'true'
p711
ssaa(lp712
S'LilyPadUSB'
p713
a(dp714
S'bootloader'
p715
(dp716
S'extended_fuses'
p717
S'0xce'
p718
sS'high_fuses'
p719
S'0xd8'
p720
sS'low_fuses'
p721
S'0xff'
p722
sS'lock_bits'
p723
S'0x2F'
p724
sS'file'
p725
S'Caterina-LilyPadUSB.hex'
p726
sS'path'
p727
S'caterina-LilyPadUSB'
p728
sS'unlock_bits'
p729
S'0x3F'
p730
ssS'build'
p731
(dp732
S'core'
p733
S'arduino'
p734
sS'f_cpu'
p735
S'8000000L'
p736
sS'vid'
p737
S'0x1B4F'
p738
sS'pid'
p739
S'0x9208'
p740
sS'variant'
p741
S'leonardo'
p742
sS'mcu'
p743
S'atmega32u4'
p744
ssS'name'
p745
S'LilyPad Arduino USB'
p746
sS'upload'
p747
(dp748
S'speed'
p749
S'57600'
p750
sS'maximum_size'
p751
S'28672'
p752
sS'protocol'
p753
S'avr109'
p754
sS'disable_flushing'
p755
S'true'
p756
ssaa(lp757
S'lilypad328'
p758
a(dp759
S'bootloader'
p760
(dp761
S'extended_fuses'
p762
S'0x05'
p763
sS'high_fuses'
p764
S'0xDA'
p765
sS'low_fuses'
p766
S'0xFF'
p767
sS'lock_bits'
p768
S'0x0F'
p769
sS'file'
p770
S'ATmegaBOOT_168_atmega328_pro_8MHz.hex'
p771
sS'path'
p772
S'atmega'
p773
sS'unlock_bits'
p774
S'0x3F'
p775
ssS'build'
p776
(dp777
S'core'
p778
S'arduino'
p779
sS'mcu'
p780
S'atmega328p'
p781
sS'f_cpu'
p782
S'8000000L'
p783
sS'variant'
p784
S'standard'
p785
ssS'name'
p786
S'LilyPad Arduino w/ ATmega328'
p787
sS'upload'
p788
(dp789
S'speed'
p790
S'57600'
p791
sS'maximum_size'
p792
S'30720'
p793
sS'protocol'
p794
S'arduino'
p795
ssaa(lp796
S'lilypad'
p797
a(dp798
S'bootloader'
p799
(dp800
S'extended_fuses'
p801
S'0x00'
p802
sS'high_fuses'
p803
S'0xdd'
p804
sS'low_fuses'
p805
S'0xe2'
p806
sS'lock_bits'
p807
S'0x0F'
p808
sS'file'
p809
S'LilyPadBOOT_168.hex'
p810
sS'path'
p811
S'lilypad'
p812
sS'unlock_bits'
p813
S'0x3F'
p814
ssS'build'
p815
(dp816
S'core'
p817
S'arduino'
p818
sS'mcu'
p819
S'atmega168'
p820
sS'f_cpu'
p821
S'8000000L'
p822
sS'variant'
p823
S'standard'
p824
ssS'name'
p825
S'LilyPad Arduino w/ ATmega168'
p826
sS'upload'
p827
(dp828
S'speed'
p829
S'19200'
p830
sS'maximum_size'
p831
S'14336'
p832
sS'protocol'
p833
S'arduino'
p834
ssaa(lp835
S'pro5v328'
p836
a(dp837
S'bootloader'
p838
(dp839
S'extended_fuses'
p840
S'0x05'
p841
sS'high_fuses'
p842
S'0xDA'
p843
sS'low_fuses'
p844
S'0xFF'
p845
sS'lock_bits'
p846
S'0x0F'
p847
sS'file'
p848
S'ATmegaBOOT_168_atmega328.hex'
p849
sS'path'
p850
S'atmega'
p851
sS'unlock_bits'
p852
S'0x3F'
p853
ssS'build'
p854
(dp855
S'core'
p856
S'arduino'
p857
sS'mcu'
p858
S'atmega328p'
p859
sS'f_cpu'
p860
S'16000000L'
p861
sS'variant'
p862
S'standard'
p863
ssS'name'
p864
S'Arduino Pro or Pro Mini (5V, 16 MHz) w/ ATmega328'
p865
sS'upload'
p866
(dp867
S'speed'
p868
S'57600'
p869
sS'maximum_size'
p870
S'30720'
p871
sS'protocol'
p872
S'arduino'
p873
ssaa(lp874
S'pro5v'
p875
a(dp876
S'bootloader'
p877
(dp878
S'extended_fuses'
p879
S'0x00'
p880
sS'high_fuses'
p881
S'0xdd'
p882
sS'low_fuses'
p883
S'0xff'
p884
sS'lock_bits'
p885
S'0x0F'
p886
sS'file'
p887
S'ATmegaBOOT_168_diecimila.hex'
p888
sS'path'
p889
S'atmega'
p890
sS'unlock_bits'
p891
S'0x3F'
p892
ssS'build'
p893
(dp894
S'core'
p895
S'arduino'
p896
sS'mcu'
p897
S'atmega168'
p898
sS'f_cpu'
p899
S'16000000L'
p900
sS'variant'
p901
S'standard'
p902
ssS'name'
p903
S'Arduino Pro or Pro Mini (5V, 16 MHz) w/ ATmega168'
p904
sS'upload'
p905
(dp906
S'speed'
p907
S'19200'
p908
sS'maximum_size'
p909
S'14336'
p910
sS'protocol'
p911
S'arduino'
p912
ssaa(lp913
S'pro328'
p914
a(dp915
S'bootloader'
p916
(dp917
S'extended_fuses'
p918
S'0x05'
p919
sS'high_fuses'
p920
S'0xDA'
p921
sS'low_fuses'
p922
S'0xFF'
p923
sS'lock_bits'
p924
S'0x0F'
p925
sS'file'
p926
S'ATmegaBOOT_168_atmega328_pro_8MHz.hex'
p927
sS'path'
p928
S'atmega'
p929
sS'unlock_bits'
p930
S'0x3F'
p931
ssS'build'
p932
(dp933
S'core'
p934
S'arduino'
p935
sS'mcu'
p936
S'atmega328p'
p937
sS'f_cpu'
p938
S'8000000L'
p939
sS'variant'
p940
S'standard'
p941
ssS'name'
p942
S'Arduino Pro or Pro Mini (3.3V, 8 MHz) w/ ATmega328'
p943
sS'upload'
p944
(dp945
S'speed'
p946
S'57600'
p947
sS'maximum_size'
p948
S'30720'
p949
sS'protocol'
p950
S'arduino'
p951
ssaa(lp952
S'pro'
p953
a(dp954
S'bootloader'
p955
(dp956
S'extended_fuses'
p957
S'0x00'
p958
sS'high_fuses'
p959
S'0xdd'
p960
sS'low_fuses'
p961
S'0xc6'
p962
sS'lock_bits'
p963
S'0x0F'
p964
sS'file'
p965
S'ATmegaBOOT_168_pro_8MHz.hex'
p966
sS'path'
p967
S'atmega'
p968
sS'unlock_bits'
p969
S'0x3F'
p970
ssS'build'
p971
(dp972
S'core'
p973
S'arduino'
p974
sS'mcu'
p975
S'atmega168'
p976
sS'f_cpu'
p977
S'8000000L'
p978
sS'variant'
p979
S'standard'
p980
ssS'name'
p981
S'Arduino Pro or Pro Mini (3.3V, 8 MHz) w/ ATmega168'
p982
sS'upload'
p983
(dp984
S'speed'
p985
S'19200'
p986
sS'maximum_size'
p987
S'14336'
p988
sS'protocol'
p989
S'arduino'
p990
ssaa(lp991
S'atmega168'
p992
a(dp993
S'bootloader'
p994
(dp995
S'extended_fuses'
p996
S'0x00'
p997
sS'high_fuses'
p998
S'0xdd'
p999
sS'low_fuses'
p1000
S'0xff'
p1001
sS'lock_bits'
p1002
S'0x0F'
p1003
sS'file'
p1004
S'ATmegaBOOT_168_ng.hex'
p1005
sS'path'
p1006
S'atmega'
p1007
sS'unlock_bits'
p1008
S'0x3F'
p1009
ssS'build'
p1010
(dp1011
S'core'
p1012
S'arduino'
p1013
sS'mcu'
p1014
S'atmega168'
p1015
sS'f_cpu'
p1016
S'16000000L'
p1017
sS'variant'
p1018
S'standard'
p1019
ssS'name'
p1020
S'Arduino NG or older w/ ATmega168'
p1021
sS'upload'
p1022
(dp1023
S'speed'
p1024
S'19200'
p1025
sS'maximum_size'
p1026
S'14336'
p1027
sS'protocol'
p1028
S'arduino'
p1029
ssaa(lp1030
S'atmega8'
p1031
a(dp1032
S'bootloader'
p1033
(dp1034
S'high_fuses'
p1035
S'0xca'
p1036
sS'low_fuses'
p1037
S'0xdf'
p1038
sS'lock_bits'
p1039
S'0x0F'
p1040
sS'file'
p1041
S'ATmegaBOOT-prod-firmware-2009-11-07.hex'
p1042
sS'path'
p1043
S'atmega8'
p1044
sS'unlock_bits'
p1045
S'0x3F'
p1046
ssS'build'
p1047
(dp1048
S'core'
p1049
S'arduino'
p1050
sS'mcu'
p1051
S'atmega8'
p1052
sS'f_cpu'
p1053
S'16000000L'
p1054
sS'variant'
p1055
S'standard'
p1056
ssS'name'
p1057
S'Arduino NG or older w/ ATmega8'
p1058
sS'upload'
p1059
(dp1060
S'speed'
p1061
S'19200'
p1062
sS'maximum_size'
p1063
S'7168'
p1064
sS'protocol'
p1065
S'arduino'
p1066
ssaa(lp1067
S'robotControl'
p1068
a(dp1069
S'bootloader'
p1070
(dp1071
S'extended_fuses'
p1072
S'0xcb'
p1073
sS'high_fuses'
p1074
S'0xd8'
p1075
sS'low_fuses'
p1076
S'0xff'
p1077
sS'lock_bits'
p1078
S'0x2F'
p1079
sS'file'
p1080
S'Caterina-Robot-Control.hex'
p1081
sS'path'
p1082
S'caterina-Arduino_Robot'
p1083
sS'unlock_bits'
p1084
S'0x3F'
p1085
ssS'build'
p1086
(dp1087
S'core'
p1088
S'robot'
p1089
sS'f_cpu'
p1090
S'16000000L'
p1091
sS'vid'
p1092
S'0x2341'
p1093
sS'pid'
p1094
S'0x8038'
p1095
sS'variant'
p1096
S'robot_control'
p1097
sS'mcu'
p1098
S'atmega32u4'
p1099
ssS'name'
p1100
S'Arduino Robot Control'
p1101
sS'upload'
p1102
(dp1103
S'speed'
p1104
S'57600'
p1105
sS'maximum_size'
p1106
S'28672'
p1107
sS'protocol'
p1108
S'avr109'
p1109
sS'disable_flushing'
p1110
S'true'
p1111
ssaa(lp1112
S'robotMotor'
p1113
a(dp1114
S'bootloader'
p1115
(dp1116
S'extended_fuses'
p1117
S'0xcb'
p1118
sS'high_fuses'
p1119
S'0xd8'
p1120
sS'low_fuses'
p1121
S'0xff'
p1122
sS'lock_bits'
p1123
S'0x2F'
p1124
sS'file'
p1125
S'Caterina-Robot-Motor.hex'
p1126
sS'path'
p1127
S'caterina-Arduino_Robot'
p1128
sS'unlock_bits'
p1129
S'0x3F'
p1130
ssS'build'
p1131
(dp1132
S'core'
p1133
S'robot'
p1134
sS'f_cpu'
p1135
S'16000000L'
p1136
sS'vid'
p1137
S'0x2341'
p1138
sS'pid'
p1139
S'0x8039'
p1140
sS'variant'
p1141
S'robot_motor'
p1142
sS'mcu'
p1143
S'atmega32u4'
p1144
ssS'name'
p1145
S'Arduino Robot Motor'
p1146
sS'upload'
p1147
(dp1148
S'speed'
p1149
S'57600'
p1150
sS'maximum_size'
p1151
S'28672'
p1152
sS'protocol'
p1153
S'avr109'
p1154
sS'disable_flushing'
p1155
S'true'
p1156
ssaatp1157
Rp1158
(dp1159
S'default'
p1160
S'uno'
p1161
sbtp1162
a(S'used_libs'
p1163
(lp1164
S'/usr/share/arduino/libraries/Robot_Control'
p1165
aS'/usr/share/arduino/hardware/arduino/cores/arduino'
p1166
atp1167
a(S'make'
p1168
S'/usr/share/arduino/hardware/tools/avr/bin/make'
p1169
tp1170
a(S'build_dir'
p1171
S'.build/uno'
p1172
tp1173
a(S'cc'
p1174
S'/usr/share/arduino/hardware/tools/avr/bin/avr-gcc'
p1175
tp1176
a(S'cflags'
p1177
g2
(g3
g4
(lp1178
tp1179
Rp1180
tp1181
a(S'cxxflags'
p1182
g2
(g3
g4
(lp1183
S'-fno-exceptions'
p1184
atp1185
Rp1186
tp1187
a(S'arduino_variants_dir'
p1188
S'/usr/share/arduino/hardware/arduino/variants'
p1189
tp1190
a(S'stty'
p1191
S'/bin/stty'
p1192
tp1193
a(S'version.txt'
p1194
S'/usr/share/arduino/lib/version.txt'
p1195
tp1196
a(S'arduino_core_dir'
p1197
g1166
tp1198
a(S'boards.txt'
p1199
S'/usr/share/arduino/hardware/arduino/boards.txt'
p1200
tp1201
a(S'avrdude.conf'
p1202
S'/usr/share/arduino/hardware/tools/avrdude.conf'
p1203
tp1204
a(S'deps'
p1205
g2
(g3
g4
(lp1206
S'.build/uno/src/dependencies.d'
p1207
aS'.build/uno/arduino/dependencies.d'
p1208
aS'.build/uno/Robot_Control/dependencies.d'
p1209
atp1210
Rp1211
tp1212
a.